; Function Attrs: nofree norecurse nosync nounwind memory(none) uwtable
define hidden ptr @mbedtls_cipher_info_from_type(i32 noundef %0) local_unnamed_addr #2 {
  %2 = load ptr, ptr getelementptr inbounds nuw (i8, ptr @mbedtls_cipher_definitions, i64 8), align 8, !tbaa !13
  %.not7 = icmp eq ptr %2, null
  br i1 %.not7, label %._crit_edge, label %.lr.ph.preheader

.lr.ph.preheader:                                 ; preds = %1
  %3 = load i32, ptr @mbedtls_cipher_definitions, align 8, !tbaa !3
  %4 = icmp eq i32 %3, %0
  br i1 %4, label %._crit_edge, label %.lr.ph12

.lr.ph12:                                         ; preds = %.lr.ph.preheader, %.lr.ph
  %.0811 = phi ptr [ %7, %.lr.ph ], [ @mbedtls_cipher_definitions, %.lr.ph.preheader ]
  %5 = getelementptr inbounds nuw i8, ptr %.0811, i64 24
  %6 = load ptr, ptr %5, align 8, !tbaa !13
  %.not = icmp eq ptr %6, null
  br i1 %.not, label %._crit_edge, label %.lr.ph, !llvm.loop !14

.lr.ph:                                           ; preds = %.lr.ph12
  %7 = getelementptr inbounds nuw i8, ptr %.0811, i64 16
  %8 = load i32, ptr %7, align 8, !tbaa !3
  %9 = icmp eq i32 %8, %0
  br i1 %9, label %._crit_edge, label %.lr.ph12, !llvm.loop !14

._crit_edge:                                      ; preds = %.lr.ph12, %.lr.ph, %.lr.ph.preheader, %1
  %.lcssa = phi ptr [ null, %1 ], [ %2, %.lr.ph.preheader ], [ %6, %.lr.ph ], [ null, %.lr.ph12 ]
  ret ptr %.lcssa
}